target datalayout = "e-m:e-p270:32:32-p271:32:32-p272:64:64-i64:64-i128:128-f80:128-n8:16:32:64-S128"
target triple = "x86_64-pc-linux-gnu"

%"class.std::vector" = type { %"struct.std::_Vector_base" }
%"struct.std::_Vector_base" = type { %"struct.std::_Vector_base<long, std::allocator<long>>::_Vector_impl" }
%"struct.std::_Vector_base<long, std::allocator<long>>::_Vector_impl" = type { %"struct.std::_Vector_base<long, std::allocator<long>>::_Vector_impl_data" }
%"struct.std::_Vector_base<long, std::allocator<long>>::_Vector_impl_data" = type { ptr, ptr, ptr }
%"struct.faiss::IndexIVF" = type <{ %"struct.faiss::Index.base", [4 x i8], %"struct.faiss::IndexIVFInterface", ptr, i8, [7 x i8], i64, i32, i32, %"struct.faiss::DirectMap", i8, [7 x i8] }>
%"struct.faiss::Index.base" = type <{ ptr, i32, [4 x i8], i64, i8, i8, [2 x i8], i32, float }>
%"struct.faiss::IndexIVFInterface" = type { ptr, %"struct.faiss::Level1Quantizer", i64, i64 }
%"struct.faiss::Level1Quantizer" = type { ptr, i64, i8, i8, [6 x i8], %"struct.faiss::ClusteringParameters", ptr }
%"struct.faiss::ClusteringParameters" = type <{ i32, i32, i8, i8, i8, i8, i8, [3 x i8], i32, i32, i32, [4 x i8], i64, i8, i8, [6 x i8] }>
%"struct.faiss::DirectMap" = type { i32, %"class.std::vector", %"class.std::unordered_map" }
%"class.std::unordered_map" = type { %"class.std::_Hashtable" }
%"class.std::_Hashtable" = type { ptr, i64, %"struct.std::__detail::_Hash_node_base", i64, %"struct.std::__detail::_Prime_rehash_policy", ptr }
%"struct.std::__detail::_Hash_node_base" = type { ptr }
%"struct.std::__detail::_Prime_rehash_policy" = type { float, i64 }
%"struct.faiss::InvertedLists::ScopedIds" = type { ptr, ptr, i64 }

; Function Attrs: mustprogress nounwind uwtable
define linkonce_odr void @_ZN5faiss13InvertedLists9ScopedIdsD2Ev(ptr noundef nonnull align 8 dereferenceable(24) %0) unnamed_addr #1 comdat align 2 personality ptr @__gxx_personality_v0 {
  %2 = alloca ptr, align 8
  store ptr %0, ptr %2, align 8, !tbaa !466
  %3 = load ptr, ptr %2, align 8
  %4 = getelementptr inbounds nuw %"struct.faiss::InvertedLists::ScopedIds", ptr %3, i32 0, i32 0
  %5 = load ptr, ptr %4, align 8, !tbaa !508
  %6 = getelementptr inbounds nuw %"struct.faiss::InvertedLists::ScopedIds", ptr %3, i32 0, i32 2
  %7 = load i64, ptr %6, align 8, !tbaa !509
  %8 = getelementptr inbounds nuw %"struct.faiss::InvertedLists::ScopedIds", ptr %3, i32 0, i32 1
  %9 = load ptr, ptr %8, align 8, !tbaa !468
  %10 = load ptr, ptr %5, align 8, !tbaa !23
  %11 = getelementptr inbounds ptr, ptr %10, i64 6
  %12 = load ptr, ptr %11, align 8
  invoke void %12(ptr noundef nonnull align 8 dereferenceable(25) %5, i64 noundef %7, ptr noundef %9)
          to label %13 unwind label %14

13:                                               ; preds = %1
  ret void

14:                                               ; preds = %1
  %15 = landingpad { ptr, i32 }
          catch ptr null
  %16 = extractvalue { ptr, i32 } %15, 0
  call void @__clang_call_terminate(ptr %16) #26
  unreachable
}

; Function Attrs: mustprogress nounwind uwtable
define linkonce_odr noundef i64 @_ZNK5faiss13InvertedLists9ScopedIdsixEm(ptr noundef nonnull align 8 dereferenceable(24) %0, i64 noundef %1) #1 comdat align 2 {
  %3 = alloca ptr, align 8
  %4 = alloca i64, align 8
  store ptr %0, ptr %3, align 8, !tbaa !466
  store i64 %1, ptr %4, align 8, !tbaa !9
  %5 = load ptr, ptr %3, align 8
  %6 = getelementptr inbounds nuw %"struct.faiss::InvertedLists::ScopedIds", ptr %5, i32 0, i32 1
  %7 = load ptr, ptr %6, align 8, !tbaa !468
  %8 = load i64, ptr %4, align 8, !tbaa !9
  %9 = getelementptr inbounds nuw i64, ptr %7, i64 %8
  %10 = load i64, ptr %9, align 8, !tbaa !9
  ret i64 %10
}

; Function Attrs: mustprogress uwtable
define linkonce_odr void @_ZN5faiss13InvertedLists9ScopedIdsC2EPKS0_m(ptr noundef nonnull align 8 dereferenceable(24) %0, ptr noundef %1, i64 noundef %2) unnamed_addr #0 comdat align 2 {
  %4 = alloca ptr, align 8
  %5 = alloca ptr, align 8
  %6 = alloca i64, align 8
  store ptr %0, ptr %4, align 8, !tbaa !466
  store ptr %1, ptr %5, align 8, !tbaa !455
  store i64 %2, ptr %6, align 8, !tbaa !9
  %7 = load ptr, ptr %4, align 8
  %8 = getelementptr inbounds nuw %"struct.faiss::InvertedLists::ScopedIds", ptr %7, i32 0, i32 0
  %9 = load ptr, ptr %5, align 8, !tbaa !455
  store ptr %9, ptr %8, align 8, !tbaa !508
  %10 = getelementptr inbounds nuw %"struct.faiss::InvertedLists::ScopedIds", ptr %7, i32 0, i32 1
  %11 = load ptr, ptr %5, align 8, !tbaa !455
  %12 = load i64, ptr %6, align 8, !tbaa !9
  %13 = load ptr, ptr %11, align 8, !tbaa !23
  %14 = getelementptr inbounds ptr, ptr %13, i64 4
  %15 = load ptr, ptr %14, align 8
  %16 = call noundef ptr %15(ptr noundef nonnull align 8 dereferenceable(25) %11, i64 noundef %12)
  store ptr %16, ptr %10, align 8, !tbaa !468
  %17 = getelementptr inbounds nuw %"struct.faiss::InvertedLists::ScopedIds", ptr %7, i32 0, i32 2
  %18 = load i64, ptr %6, align 8, !tbaa !9
  store i64 %18, ptr %17, align 8, !tbaa !509
  ret void
}

; Function Attrs: mustprogress uwtable
define noundef zeroext i1 @_ZNK5faiss8IndexIVF16check_ids_sortedEv(ptr noundef nonnull align 8 dereferenceable(265) %0) #0 align 2 {
  %2 = alloca ptr, align 8
  %3 = alloca i64, align 8
  %4 = alloca i64, align 8
  %5 = alloca i32, align 4
  %6 = alloca i64, align 8
  %7 = alloca %"struct.faiss::InvertedLists::ScopedIds", align 8
  %8 = alloca i64, align 8
  store ptr %0, ptr %2, align 8, !tbaa !45
  %9 = load ptr, ptr %2, align 8
  call void @llvm.lifetime.start.p0(i64 8, ptr %3) #20
  store i64 0, ptr %3, align 8, !tbaa !9
  call void @llvm.lifetime.start.p0(i64 8, ptr %4) #20
  store i64 0, ptr %4, align 8, !tbaa !9
  br label %10

10:                                               ; preds = %49, %1
  %11 = load i64, ptr %4, align 8, !tbaa !9
  %12 = getelementptr inbounds i8, ptr %9, i64 48
  %13 = getelementptr inbounds nuw %"struct.faiss::Level1Quantizer", ptr %12, i32 0, i32 1
  %14 = load i64, ptr %13, align 8, !tbaa !102
  %15 = icmp ult i64 %11, %14
  br i1 %15, label %17, label %16

16:                                               ; preds = %10
  store i32 2, ptr %5, align 4
  call void @llvm.lifetime.end.p0(i64 8, ptr %4) #20
  br label %52

17:                                               ; preds = %10
  call void @llvm.lifetime.start.p0(i64 8, ptr %6) #20
  %18 = getelementptr inbounds nuw %"struct.faiss::IndexIVF", ptr %9, i32 0, i32 3
  %19 = load ptr, ptr %18, align 8, !tbaa !98
  %20 = load i64, ptr %4, align 8, !tbaa !9
  %21 = load ptr, ptr %19, align 8, !tbaa !23
  %22 = getelementptr inbounds ptr, ptr %21, i64 2
  %23 = load ptr, ptr %22, align 8
  %24 = call noundef i64 %23(ptr noundef nonnull align 8 dereferenceable(25) %19, i64 noundef %20)
  store i64 %24, ptr %6, align 8, !tbaa !9
  call void @llvm.lifetime.start.p0(i64 24, ptr %7) #20
  %25 = getelementptr inbounds nuw %"struct.faiss::IndexIVF", ptr %9, i32 0, i32 3
  %26 = load ptr, ptr %25, align 8, !tbaa !98
  %27 = load i64, ptr %4, align 8, !tbaa !9
  call void @_ZN5faiss13InvertedLists9ScopedIdsC2EPKS0_m(ptr noundef nonnull align 8 dereferenceable(24) %7, ptr noundef %26, i64 noundef %27)
  call void @llvm.lifetime.start.p0(i64 8, ptr %8) #20
  store i64 0, ptr %8, align 8, !tbaa !9
  br label %28

28:                                               ; preds = %45, %17
  %29 = load i64, ptr %8, align 8, !tbaa !9
  %30 = add i64 %29, 1
  %31 = load i64, ptr %6, align 8, !tbaa !9
  %32 = icmp ult i64 %30, %31
  br i1 %32, label %34, label %33

33:                                               ; preds = %28
  store i32 5, ptr %5, align 4
  call void @llvm.lifetime.end.p0(i64 8, ptr %8) #20
  br label %48

34:                                               ; preds = %28
  %35 = load i64, ptr %8, align 8, !tbaa !9
  %36 = add i64 %35, 1
  %37 = call noundef i64 @_ZNK5faiss13InvertedLists9ScopedIdsixEm(ptr noundef nonnull align 8 dereferenceable(24) %7, i64 noundef %36)
  %38 = load i64, ptr %8, align 8, !tbaa !9
  %39 = call noundef i64 @_ZNK5faiss13InvertedLists9ScopedIdsixEm(ptr noundef nonnull align 8 dereferenceable(24) %7, i64 noundef %38)
  %40 = icmp slt i64 %37, %39
  br i1 %40, label %41, label %44

41:                                               ; preds = %34
  %42 = load i64, ptr %3, align 8, !tbaa !9
  %43 = add i64 %42, 1
  store i64 %43, ptr %3, align 8, !tbaa !9
  br label %44

44:                                               ; preds = %41, %34
  br label %45

45:                                               ; preds = %44
  %46 = load i64, ptr %8, align 8, !tbaa !9
  %47 = add i64 %46, 1
  store i64 %47, ptr %8, align 8, !tbaa !9
  br label %28, !llvm.loop !592

48:                                               ; preds = %33
  call void @_ZN5faiss13InvertedLists9ScopedIdsD2Ev(ptr noundef nonnull align 8 dereferenceable(24) %7) #20
  call void @llvm.lifetime.end.p0(i64 24, ptr %7) #20
  call void @llvm.lifetime.end.p0(i64 8, ptr %6) #20
  br label %49

49:                                               ; preds = %48
  %50 = load i64, ptr %4, align 8, !tbaa !9
  %51 = add i64 %50, 1
  store i64 %51, ptr %4, align 8, !tbaa !9
  br label %10, !llvm.loop !593

52:                                               ; preds = %16
  %53 = load i64, ptr %3, align 8, !tbaa !9
  %54 = icmp eq i64 %53, 0
  store i32 1, ptr %5, align 4
  call void @llvm.lifetime.end.p0(i64 8, ptr %3) #20
  ret i1 %54
}