; Function Attrs: mustprogress uwtable
define noundef zeroext i1 @_ZNK5faiss8IndexIVF16check_ids_sortedEv(ptr noundef nonnull readonly align 8 captures(none) dereferenceable(265) %0) local_unnamed_addr #0 align 2 personality ptr @__gxx_personality_v0 {
  %2 = getelementptr inbounds nuw i8, ptr %0, i64 56
  %3 = load i64, ptr %2, align 8, !tbaa !99
  %.not = icmp eq i64 %3, 0
  br i1 %.not, label %._crit_edge23, label %.lr.ph22

.lr.ph22:                                         ; preds = %1
  %4 = getelementptr inbounds nuw i8, ptr %0, i64 144
  br label %6

._crit_edge23.loopexit:                           ; preds = %_ZN5faiss13InvertedLists9ScopedIdsD2Ev.exit
  %5 = icmp eq i64 %.1.lcssa, 0
  br label %._crit_edge23

._crit_edge23:                                    ; preds = %._crit_edge23.loopexit, %1
  %.011.lcssa = phi i1 [ true, %1 ], [ %5, %._crit_edge23.loopexit ]
  ret i1 %.011.lcssa

6:                                                ; preds = %.lr.ph22, %_ZN5faiss13InvertedLists9ScopedIdsD2Ev.exit
  %.01120 = phi i64 [ 0, %.lr.ph22 ], [ %.1.lcssa, %_ZN5faiss13InvertedLists9ScopedIdsD2Ev.exit ]
  %.01219 = phi i64 [ 0, %.lr.ph22 ], [ %24, %_ZN5faiss13InvertedLists9ScopedIdsD2Ev.exit ]
  %7 = load ptr, ptr %4, align 8, !tbaa !97
  %8 = load ptr, ptr %7, align 8, !tbaa !14
  %9 = getelementptr inbounds nuw i8, ptr %8, i64 16
  %10 = load ptr, ptr %9, align 8
  %11 = tail call noundef i64 %10(ptr noundef nonnull align 8 dereferenceable(25) %7, i64 noundef %.01219)
  %12 = load ptr, ptr %4, align 8, !tbaa !97
  %13 = load ptr, ptr %12, align 8, !tbaa !14
  %14 = getelementptr inbounds nuw i8, ptr %13, i64 32
  %15 = load ptr, ptr %14, align 8
  %16 = tail call noundef ptr %15(ptr noundef nonnull align 8 dereferenceable(25) %12, i64 noundef %.01219)
  %17 = icmp ugt i64 %11, 1
  br i1 %17, label %.lr.ph.preheader, label %._crit_edge

.lr.ph.preheader:                                 ; preds = %6
  %.pre = load i64, ptr %16, align 8, !tbaa !19
  br label %.lr.ph

._crit_edge:                                      ; preds = %.lr.ph, %6
  %.1.lcssa = phi i64 [ %.01120, %6 ], [ %spec.select, %.lr.ph ]
  %18 = load ptr, ptr %12, align 8, !tbaa !14
  %19 = getelementptr inbounds nuw i8, ptr %18, i64 48
  %20 = load ptr, ptr %19, align 8
  invoke void %20(ptr noundef nonnull align 8 dereferenceable(25) %12, i64 noundef %.01219, ptr noundef %16)
          to label %_ZN5faiss13InvertedLists9ScopedIdsD2Ev.exit unwind label %21

21:                                               ; preds = %._crit_edge
  %22 = landingpad { ptr, i32 }
          catch ptr null
  %23 = extractvalue { ptr, i32 } %22, 0
  tail call void @__clang_call_terminate(ptr %23) #41
  unreachable

_ZN5faiss13InvertedLists9ScopedIdsD2Ev.exit:      ; preds = %._crit_edge
  %24 = add nuw i64 %.01219, 1
  %25 = load i64, ptr %2, align 8, !tbaa !99
  %26 = icmp ult i64 %24, %25
  br i1 %26, label %6, label %._crit_edge23.loopexit, !llvm.loop !270

.lr.ph:                                           ; preds = %.lr.ph.preheader, %.lr.ph
  %27 = phi i64 [ %30, %.lr.ph ], [ %.pre, %.lr.ph.preheader ]
  %28 = phi i64 [ %33, %.lr.ph ], [ 1, %.lr.ph.preheader ]
  %.117 = phi i64 [ %spec.select, %.lr.ph ], [ %.01120, %.lr.ph.preheader ]
  %29 = getelementptr inbounds nuw i64, ptr %16, i64 %28
  %30 = load i64, ptr %29, align 8, !tbaa !19
  %31 = icmp slt i64 %30, %27
  %32 = zext i1 %31 to i64
  %spec.select = add i64 %.117, %32
  %33 = add nuw i64 %28, 1
  %exitcond.not = icmp eq i64 %33, %11
  br i1 %exitcond.not, label %._crit_edge, label %.lr.ph, !llvm.loop !271
}